; Function Attrs: nounwind uwtable
define range(i32 0, 2) i32 @OBJ_add_sigid(i32 noundef %0, i32 noundef %1, i32 noundef %2) local_unnamed_addr #0 {
  %4 = alloca %struct.nid_triple, align 4
  %5 = icmp eq i32 %0, 0
  %6 = icmp eq i32 %2, 0
  %or.cond = or i1 %5, %6
  br i1 %or.cond, label %66, label %7

7:                                                ; preds = %3
  %8 = tail call i32 @CRYPTO_THREAD_run_once(ptr noundef nonnull @sig_init, ptr noundef nonnull @o_sig_init_ossl_) #5
  %.not.i = icmp eq i32 %8, 0
  %9 = load i32, ptr @o_sig_init_ossl_ret_, align 4
  %.not35 = icmp eq i32 %9, 0
  %.not = select i1 %.not.i, i1 true, i1 %.not35
  br i1 %.not, label %66, label %10

10:                                               ; preds = %7
  %11 = tail call noalias ptr @CRYPTO_malloc(i64 noundef 12, ptr noundef nonnull @.str, i32 noundef 158) #5
  %12 = icmp eq ptr %11, null
  br i1 %12, label %66, label %13

13:                                               ; preds = %10
  store i32 %0, ptr %11, align 4, !tbaa !3
  %14 = getelementptr inbounds nuw i8, ptr %11, i64 4
  store i32 %1, ptr %14, align 4, !tbaa !12
  %15 = getelementptr inbounds nuw i8, ptr %11, i64 8
  store i32 %2, ptr %15, align 4, !tbaa !14
  %16 = load ptr, ptr @sig_lock, align 8, !tbaa !8
  %17 = tail call i32 @CRYPTO_THREAD_write_lock(ptr noundef %16) #5
  %.not22 = icmp eq i32 %17, 0
  br i1 %.not22, label %18, label %19

18:                                               ; preds = %13
  tail call void @ERR_new() #5
  tail call void @ERR_set_debug(ptr noundef nonnull @.str, i32 noundef 165, ptr noundef nonnull @__func__.OBJ_add_sigid) #5
  tail call void (i32, i32, ptr, ...) @ERR_set_error(i32 noundef 8, i32 noundef 786704, ptr noundef null) #5
  tail call void @CRYPTO_free(ptr noundef nonnull %11, ptr noundef nonnull @.str, i32 noundef 166) #5
  br label %66

19:                                               ; preds = %13
  call void @llvm.lifetime.start.p0(i64 12, ptr nonnull %4) #5
  store i32 %0, ptr %4, align 4, !tbaa !3
  %20 = call ptr @OBJ_bsearch_(ptr noundef nonnull %4, ptr noundef nonnull @sigoid_srt, i32 noundef 56, i32 noundef 12, ptr noundef nonnull @sig_cmp_BSEARCH_CMP_FN) #5
  %21 = icmp eq ptr %20, null
  br i1 %21, label %22, label %34

22:                                               ; preds = %19
  %23 = call i32 @CRYPTO_THREAD_run_once(ptr noundef nonnull @sig_init, ptr noundef nonnull @o_sig_init_ossl_) #5
  %.not.i.i = icmp eq i32 %23, 0
  %24 = load i32, ptr @o_sig_init_ossl_ret_, align 4
  %.not27.i = icmp eq i32 %24, 0
  %.not.i26 = select i1 %.not.i.i, i1 true, i1 %.not27.i
  br i1 %.not.i26, label %.thread, label %25

25:                                               ; preds = %22
  %26 = load ptr, ptr @sig_app, align 8, !tbaa !10
  %.not24.i = icmp eq ptr %26, null
  br i1 %.not24.i, label %.thread.thread, label %27

.thread.thread:                                   ; preds = %25
  call void @llvm.lifetime.end.p0(i64 12, ptr nonnull %4) #5
  br label %44

27:                                               ; preds = %25
  %28 = call i32 @OPENSSL_sk_find(ptr noundef nonnull %26, ptr noundef nonnull %4) #5
  %29 = icmp sgt i32 %28, -1
  br i1 %29, label %30, label %.thread

30:                                               ; preds = %27
  %31 = load ptr, ptr @sig_app, align 8, !tbaa !10
  %32 = call ptr @OPENSSL_sk_value(ptr noundef %31, i32 noundef range(i32 0, -2147483648) %28) #5
  %33 = icmp eq ptr %32, null
  br i1 %33, label %.thread, label %34

34:                                               ; preds = %30, %19
  %.014.i = phi ptr [ %32, %30 ], [ %20, %19 ]
  %35 = getelementptr inbounds nuw i8, ptr %.014.i, i64 4
  %36 = load i32, ptr %35, align 4, !tbaa !12
  %37 = getelementptr inbounds nuw i8, ptr %.014.i, i64 8
  %38 = load i32, ptr %37, align 4, !tbaa !14
  call void @llvm.lifetime.end.p0(i64 12, ptr nonnull %4) #5
  %39 = icmp eq i32 %36, %1
  %40 = icmp eq i32 %38, %2
  %41 = select i1 %39, i1 %40, i1 false
  %42 = zext i1 %41 to i32
  br label %63

.thread:                                          ; preds = %27, %22, %30
  %.pr = load ptr, ptr @sig_app, align 8, !tbaa !10
  call void @llvm.lifetime.end.p0(i64 12, ptr nonnull %4) #5
  %43 = icmp eq ptr %.pr, null
  br i1 %43, label %44, label %47

44:                                               ; preds = %.thread.thread, %.thread
  %45 = call ptr @OPENSSL_sk_new(ptr noundef nonnull @sig_sk_cmp) #5
  store ptr %45, ptr @sig_app, align 8, !tbaa !10
  %46 = icmp eq ptr %45, null
  br i1 %46, label %63, label %47

47:                                               ; preds = %44, %.thread
  %48 = phi ptr [ %45, %44 ], [ %.pr, %.thread ]
  %49 = load ptr, ptr @sigx_app, align 8, !tbaa !10
  %50 = icmp eq ptr %49, null
  br i1 %50, label %51, label %54

51:                                               ; preds = %47
  %52 = call ptr @OPENSSL_sk_new(ptr noundef nonnull @sigx_cmp) #5
  store ptr %52, ptr @sigx_app, align 8, !tbaa !10
  %53 = icmp eq ptr %52, null
  br i1 %53, label %63, label %._crit_edge

._crit_edge:                                      ; preds = %51
  %.pre = load ptr, ptr @sig_app, align 8, !tbaa !10
  br label %54

54:                                               ; preds = %._crit_edge, %47
  %55 = phi ptr [ %.pre, %._crit_edge ], [ %48, %47 ]
  %56 = call i32 @OPENSSL_sk_push(ptr noundef %55, ptr noundef nonnull %11) #5
  %.not24 = icmp eq i32 %56, 0
  br i1 %.not24, label %63, label %57

57:                                               ; preds = %54
  %58 = load ptr, ptr @sigx_app, align 8, !tbaa !10
  %59 = call i32 @OPENSSL_sk_push(ptr noundef %58, ptr noundef nonnull %11) #5
  %.not25 = icmp eq i32 %59, 0
  br i1 %.not25, label %63, label %60

60:                                               ; preds = %57
  %61 = load ptr, ptr @sig_app, align 8, !tbaa !10
  call void @OPENSSL_sk_sort(ptr noundef %61) #5
  %62 = load ptr, ptr @sigx_app, align 8, !tbaa !10
  call void @OPENSSL_sk_sort(ptr noundef %62) #5
  br label %63

63:                                               ; preds = %57, %54, %51, %44, %60, %34
  %.017 = phi ptr [ %11, %34 ], [ %11, %44 ], [ %11, %51 ], [ null, %60 ], [ %11, %54 ], [ null, %57 ]
  %.0 = phi i32 [ %42, %34 ], [ 0, %44 ], [ 0, %51 ], [ 1, %60 ], [ 0, %54 ], [ 0, %57 ]
  call void @CRYPTO_free(ptr noundef %.017, ptr noundef nonnull @.str, i32 noundef 204) #5
  %64 = load ptr, ptr @sig_lock, align 8, !tbaa !8
  %65 = call i32 @CRYPTO_THREAD_unlock(ptr noundef %64) #5
  br label %66

66:                                               ; preds = %10, %7, %3, %63, %18
  %.018 = phi i32 [ %.0, %63 ], [ 0, %18 ], [ 0, %3 ], [ 0, %7 ], [ 0, %10 ]
  ret i32 %.018
}